#include <math.h>
#include <stdio.h>
#include <stdlib.h>
#include <string.h>

void main()
{
	int x, y, a[9][9], i, j, b[9], t[9], count=0;
	scanf("%d,%d", &x, &y);
	for(i=0; i<x; i++)
	{
		b[i]=0;
		for(j=0; j<y; j++)
		{
			scanf("%d", &a[i][j]);
			if(a[i][j]>a[i][b[i]])
				b[i]=j;
		}
	}
	for(i=0; i<x; )
	{
		t[i]=1;
		for(j=0; j<x; j++)
		{
			if(j==i) continue;
			if(a[i][b[i]]>a[j][b[i]])
				t[i]=0;
		}
		if(t[i])
			count++;
		if(count) break;
		i++;
	}
	if(count)
		printf("%d+%d\n", i, b[i]);
	else
		printf("No\n");
}