; ModuleID = '35/1876.c'
source_filename = "35/1876.c"
target datalayout = "e-m:e-p270:32:32-p271:32:32-p272:64:64-i64:64-f80:128-n8:16:32:64-S128"
target triple = "x86_64-pc-linux-gnu"

@.str = private unnamed_addr constant [6 x i8] c"%d,%d\00", align 1
@.str.1 = private unnamed_addr constant [3 x i8] c"%d\00", align 1
@.str.2 = private unnamed_addr constant [7 x i8] c"%d+%d\0A\00", align 1
@.str.3 = private unnamed_addr constant [4 x i8] c"No\0A\00", align 1

; Function Attrs: noinline nounwind uwtable
define dso_local void @main() #0 {
  %1 = alloca i32, align 4
  %2 = alloca i32, align 4
  %3 = alloca [9 x [9 x i32]], align 16
  %4 = alloca i32, align 4
  %5 = alloca i32, align 4
  %6 = alloca [9 x i32], align 16
  %7 = alloca [9 x i32], align 16
  %8 = alloca i32, align 4
  store i32 0, i32* %8, align 4
  %9 = call i32 (i8*, ...) @__isoc99_scanf(i8* getelementptr inbounds ([6 x i8], [6 x i8]* @.str, i64 0, i64 0), i32* %1, i32* %2)
  store i32 0, i32* %4, align 4
  br label %10

10:                                               ; preds = %58, %0
  %11 = load i32, i32* %4, align 4
  %12 = load i32, i32* %1, align 4
  %13 = icmp slt i32 %11, %12
  br i1 %13, label %14, label %61

14:                                               ; preds = %10
  %15 = load i32, i32* %4, align 4
  %16 = sext i32 %15 to i64
  %17 = getelementptr inbounds [9 x i32], [9 x i32]* %6, i64 0, i64 %16
  store i32 0, i32* %17, align 4
  store i32 0, i32* %5, align 4
  br label %18

18:                                               ; preds = %54, %14
  %19 = load i32, i32* %5, align 4
  %20 = load i32, i32* %2, align 4
  %21 = icmp slt i32 %19, %20
  br i1 %21, label %22, label %57

22:                                               ; preds = %18
  %23 = load i32, i32* %4, align 4
  %24 = sext i32 %23 to i64
  %25 = getelementptr inbounds [9 x [9 x i32]], [9 x [9 x i32]]* %3, i64 0, i64 %24
  %26 = load i32, i32* %5, align 4
  %27 = sext i32 %26 to i64
  %28 = getelementptr inbounds [9 x i32], [9 x i32]* %25, i64 0, i64 %27
  %29 = call i32 (i8*, ...) @__isoc99_scanf(i8* getelementptr inbounds ([3 x i8], [3 x i8]* @.str.1, i64 0, i64 0), i32* %28)
  %30 = load i32, i32* %4, align 4
  %31 = sext i32 %30 to i64
  %32 = getelementptr inbounds [9 x [9 x i32]], [9 x [9 x i32]]* %3, i64 0, i64 %31
  %33 = load i32, i32* %5, align 4
  %34 = sext i32 %33 to i64
  %35 = getelementptr inbounds [9 x i32], [9 x i32]* %32, i64 0, i64 %34
  %36 = load i32, i32* %35, align 4
  %37 = load i32, i32* %4, align 4
  %38 = sext i32 %37 to i64
  %39 = getelementptr inbounds [9 x [9 x i32]], [9 x [9 x i32]]* %3, i64 0, i64 %38
  %40 = load i32, i32* %4, align 4
  %41 = sext i32 %40 to i64
  %42 = getelementptr inbounds [9 x i32], [9 x i32]* %6, i64 0, i64 %41
  %43 = load i32, i32* %42, align 4
  %44 = sext i32 %43 to i64
  %45 = getelementptr inbounds [9 x i32], [9 x i32]* %39, i64 0, i64 %44
  %46 = load i32, i32* %45, align 4
  %47 = icmp sgt i32 %36, %46
  br i1 %47, label %48, label %53

48:                                               ; preds = %22
  %49 = load i32, i32* %5, align 4
  %50 = load i32, i32* %4, align 4
  %51 = sext i32 %50 to i64
  %52 = getelementptr inbounds [9 x i32], [9 x i32]* %6, i64 0, i64 %51
  store i32 %49, i32* %52, align 4
  br label %53

53:                                               ; preds = %48, %22
  br label %54

54:                                               ; preds = %53
  %55 = load i32, i32* %5, align 4
  %56 = add nsw i32 %55, 1
  store i32 %56, i32* %5, align 4
  br label %18

57:                                               ; preds = %18
  br label %58

58:                                               ; preds = %57
  %59 = load i32, i32* %4, align 4
  %60 = add nsw i32 %59, 1
  store i32 %60, i32* %4, align 4
  br label %10

61:                                               ; preds = %10
  store i32 0, i32* %4, align 4
  br label %62

62:                                               ; preds = %122, %61
  %63 = load i32, i32* %4, align 4
  %64 = load i32, i32* %1, align 4
  %65 = icmp slt i32 %63, %64
  br i1 %65, label %66, label %125

66:                                               ; preds = %62
  %67 = load i32, i32* %4, align 4
  %68 = sext i32 %67 to i64
  %69 = getelementptr inbounds [9 x i32], [9 x i32]* %7, i64 0, i64 %68
  store i32 1, i32* %69, align 4
  store i32 0, i32* %5, align 4
  br label %70

70:                                               ; preds = %106, %66
  %71 = load i32, i32* %5, align 4
  %72 = load i32, i32* %1, align 4
  %73 = icmp slt i32 %71, %72
  br i1 %73, label %74, label %109

74:                                               ; preds = %70
  %75 = load i32, i32* %5, align 4
  %76 = load i32, i32* %4, align 4
  %77 = icmp eq i32 %75, %76
  br i1 %77, label %78, label %79

78:                                               ; preds = %74
  br label %106

79:                                               ; preds = %74
  %80 = load i32, i32* %4, align 4
  %81 = sext i32 %80 to i64
  %82 = getelementptr inbounds [9 x [9 x i32]], [9 x [9 x i32]]* %3, i64 0, i64 %81
  %83 = load i32, i32* %4, align 4
  %84 = sext i32 %83 to i64
  %85 = getelementptr inbounds [9 x i32], [9 x i32]* %6, i64 0, i64 %84
  %86 = load i32, i32* %85, align 4
  %87 = sext i32 %86 to i64
  %88 = getelementptr inbounds [9 x i32], [9 x i32]* %82, i64 0, i64 %87
  %89 = load i32, i32* %88, align 4
  %90 = load i32, i32* %5, align 4
  %91 = sext i32 %90 to i64
  %92 = getelementptr inbounds [9 x [9 x i32]], [9 x [9 x i32]]* %3, i64 0, i64 %91
  %93 = load i32, i32* %4, align 4
  %94 = sext i32 %93 to i64
  %95 = getelementptr inbounds [9 x i32], [9 x i32]* %6, i64 0, i64 %94
  %96 = load i32, i32* %95, align 4
  %97 = sext i32 %96 to i64
  %98 = getelementptr inbounds [9 x i32], [9 x i32]* %92, i64 0, i64 %97
  %99 = load i32, i32* %98, align 4
  %100 = icmp sgt i32 %89, %99
  br i1 %100, label %101, label %105

101:                                              ; preds = %79
  %102 = load i32, i32* %4, align 4
  %103 = sext i32 %102 to i64
  %104 = getelementptr inbounds [9 x i32], [9 x i32]* %7, i64 0, i64 %103
  store i32 0, i32* %104, align 4
  br label %105

105:                                              ; preds = %101, %79
  br label %106

106:                                              ; preds = %105, %78
  %107 = load i32, i32* %5, align 4
  %108 = add nsw i32 %107, 1
  store i32 %108, i32* %5, align 4
  br label %70

109:                                              ; preds = %70
  %110 = load i32, i32* %4, align 4
  %111 = sext i32 %110 to i64
  %112 = getelementptr inbounds [9 x i32], [9 x i32]* %7, i64 0, i64 %111
  %113 = load i32, i32* %112, align 4
  %114 = icmp ne i32 %113, 0
  br i1 %114, label %115, label %118

115:                                              ; preds = %109
  %116 = load i32, i32* %8, align 4
  %117 = add nsw i32 %116, 1
  store i32 %117, i32* %8, align 4
  br label %118

118:                                              ; preds = %115, %109
  %119 = load i32, i32* %8, align 4
  %120 = icmp ne i32 %119, 0
  br i1 %120, label %121, label %122

121:                                              ; preds = %118
  br label %125

122:                                              ; preds = %118
  %123 = load i32, i32* %4, align 4
  %124 = add nsw i32 %123, 1
  store i32 %124, i32* %4, align 4
  br label %62

125:                                              ; preds = %121, %62
  %126 = load i32, i32* %8, align 4
  %127 = icmp ne i32 %126, 0
  br i1 %127, label %128, label %135

128:                                              ; preds = %125
  %129 = load i32, i32* %4, align 4
  %130 = load i32, i32* %4, align 4
  %131 = sext i32 %130 to i64
  %132 = getelementptr inbounds [9 x i32], [9 x i32]* %6, i64 0, i64 %131
  %133 = load i32, i32* %132, align 4
  %134 = call i32 (i8*, ...) @printf(i8* getelementptr inbounds ([7 x i8], [7 x i8]* @.str.2, i64 0, i64 0), i32 %129, i32 %133)
  br label %137

135:                                              ; preds = %125
  %136 = call i32 (i8*, ...) @printf(i8* getelementptr inbounds ([4 x i8], [4 x i8]* @.str.3, i64 0, i64 0))
  br label %137

137:                                              ; preds = %135, %128
  ret void
}

declare dso_local i32 @__isoc99_scanf(i8*, ...) #1

declare dso_local i32 @printf(i8*, ...) #1


!llvm.module.flags = !{!0}
!llvm.ident = !{!1}

!0 = !{i32 1, !"wchar_size", i32 4}
!1 = !{!"clang version 10.0.0-4ubuntu1 "}
